; Function Attrs: nounwind uwtable
define hidden noundef i32 @dom_documenttype_name_read(ptr noundef %0, ptr nocapture noundef writeonly %1) local_unnamed_addr #0 {
  %3 = tail call ptr @dom_object_get_node(ptr noundef %0) #9
  %4 = icmp eq ptr %3, null
  br i1 %4, label %5, label %6

5:                                                ; preds = %2
  tail call void @php_dom_throw_error(i32 noundef 11, i32 noundef 1) #9
  br label %19

6:                                                ; preds = %2
  %7 = getelementptr inbounds i8, ptr %3, i64 16
  %8 = load ptr, ptr %7, align 8
  %.not = icmp eq ptr %8, null
  %spec.select = select i1 %.not, ptr @.str, ptr %8
  %9 = tail call i64 @strlen(ptr noundef nonnull dereferenceable(1) %spec.select) #10
  %10 = and i64 %9, -8
  %11 = add i64 %10, 32
  %12 = tail call noalias ptr @_emalloc(i64 noundef %11) #11
  store i32 1, ptr %12, align 4
  %13 = getelementptr inbounds i8, ptr %12, i64 4
  store i32 22, ptr %13, align 4
  %14 = getelementptr inbounds i8, ptr %12, i64 8
  store i64 0, ptr %14, align 8
  %15 = getelementptr inbounds i8, ptr %12, i64 16
  store i64 %9, ptr %15, align 8
  %16 = getelementptr inbounds i8, ptr %12, i64 24
  tail call void @llvm.memcpy.p0.p0.i64(ptr nonnull align 8 %16, ptr nonnull align 1 %spec.select, i64 %9, i1 false)
  %17 = getelementptr inbounds [1 x i8], ptr %16, i64 0, i64 %9
  store i8 0, ptr %17, align 1
  store ptr %12, ptr %1, align 8
  %18 = getelementptr inbounds i8, ptr %1, i64 8
  store i32 262, ptr %18, align 8
  br label %19

19:                                               ; preds = %6, %5
  %.0 = phi i32 [ -1, %5 ], [ 0, %6 ]
  ret i32 %.0
}